target datalayout = "e-m:e-p270:32:32-p271:32:32-p272:64:64-i64:64-i128:128-f80:128-n8:16:32:64-S128"
target triple = "x86_64-unknown-linux-gnu"

%"class.v8::Maybe.257" = type { i8, i32 }

; Function Attrs: mustprogress nounwind uwtable
define internal noundef i32 @_ZN4nodeL16EmitExitInternalEPNS_11EnvironmentE(ptr noundef %env) #4 {
entry:
  %this.addr.i = alloca ptr, align 8
  %default_value.addr.i = alloca ptr, align 8
  %env.addr = alloca ptr, align 8
  %ref.tmp = alloca %"class.v8::Maybe.257", align 4
  %ref.tmp1 = alloca i32, align 4
  store ptr %env, ptr %env.addr, align 8
  %0 = load ptr, ptr %env.addr, align 8
  %call = call i64 @_ZN4node23EmitProcessExitInternalEPNS_11EnvironmentE(ptr noundef %0)
  store i64 %call, ptr %ref.tmp, align 4
  store i32 1, ptr %ref.tmp1, align 4
  store ptr %ref.tmp, ptr %this.addr.i, align 8
  store ptr %ref.tmp1, ptr %default_value.addr.i, align 8
  %this1.i = load ptr, ptr %this.addr.i, align 8
  %1 = load i8, ptr %this1.i, align 4
  %tobool.i = trunc i8 %1 to i1
  br i1 %tobool.i, label %cond.true.i, label %cond.false.i

cond.true.i:                                      ; preds = %entry
  %value_.i = getelementptr inbounds %"class.v8::Maybe.257", ptr %this1.i, i32 0, i32 1
  %2 = load i32, ptr %value_.i, align 4
  br label %_ZNK2v85MaybeIN4node8ExitCodeEE9FromMaybeERKS2_.exit

cond.false.i:                                     ; preds = %entry
  %3 = load ptr, ptr %default_value.addr.i, align 8
  %4 = load i32, ptr %3, align 4
  br label %_ZNK2v85MaybeIN4node8ExitCodeEE9FromMaybeERKS2_.exit

_ZNK2v85MaybeIN4node8ExitCodeEE9FromMaybeERKS2_.exit: ; preds = %cond.false.i, %cond.true.i
  %cond.i = phi i32 [ %2, %cond.true.i ], [ %4, %cond.false.i ]
  ret i32 %cond.i
}

; Function Attrs: mustprogress nounwind uwtable
define dso_local noundef i32 @_ZN4node8EmitExitEPNS_11EnvironmentE(ptr noundef %env) #4 {
entry:
  %env.addr = alloca ptr, align 8
  store ptr %env, ptr %env.addr, align 8
  %0 = load ptr, ptr %env.addr, align 8
  %call = call noundef i32 @_ZN4nodeL16EmitExitInternalEPNS_11EnvironmentE(ptr noundef %0)
  ret i32 %call
}