; Function Attrs: mustprogress nounwind uwtable
define dso_local noundef i32 @_ZN4node8EmitExitEPNS_11EnvironmentE(ptr noundef %env) local_unnamed_addr #3 {
entry:
  %call.i = tail call i64 @_ZN4node23EmitProcessExitInternalEPNS_11EnvironmentE(ptr noundef %env)
  %0 = and i64 %call.i, 1
  %tobool.i.not.i = icmp eq i64 %0, 0
  %ref.tmp.sroa.21.0.extract.shift.i = lshr i64 %call.i, 32
  %ref.tmp.sroa.21.0.extract.trunc.i = trunc i64 %ref.tmp.sroa.21.0.extract.shift.i to i32
  %cond.i.i = select i1 %tobool.i.not.i, i32 1, i32 %ref.tmp.sroa.21.0.extract.trunc.i
  ret i32 %cond.i.i
}